; ModuleID = 'bench/openssl/original/property_err.ll'
source_filename = "bench/openssl/original/property_err.ll"
target datalayout = "e-m:e-p270:32:32-p271:32:32-p272:64:64-i64:64-i128:128-f80:128-n8:16:32:64-S128"
target triple = "x86_64-pc-linux-gnu"

%struct.ERR_string_data_st = type { i64, ptr }

@PROP_str_reasons = internal constant [12 x %struct.ERR_string_data_st] [%struct.ERR_string_data_st { i64 461373540, ptr @.str }, %struct.ERR_string_data_st { i64 461373541, ptr @.str.1 }, %struct.ERR_string_data_st { i64 461373542, ptr @.str.2 }, %struct.ERR_string_data_st { i64 461373543, ptr @.str.3 }, %struct.ERR_string_data_st { i64 461373544, ptr @.str.4 }, %struct.ERR_string_data_st { i64 461373545, ptr @.str.5 }, %struct.ERR_string_data_st { i64 461373546, ptr @.str.6 }, %struct.ERR_string_data_st { i64 461373547, ptr @.str.7 }, %struct.ERR_string_data_st { i64 461373548, ptr @.str.8 }, %struct.ERR_string_data_st { i64 461373549, ptr @.str.9 }, %struct.ERR_string_data_st { i64 461373550, ptr @.str.10 }, %struct.ERR_string_data_st zeroinitializer], align 16
@.str = private unnamed_addr constant [14 x i8] c"name too long\00", align 1
@.str.1 = private unnamed_addr constant [23 x i8] c"not an ascii character\00", align 1
@.str.2 = private unnamed_addr constant [25 x i8] c"not an hexadecimal digit\00", align 1
@.str.3 = private unnamed_addr constant [18 x i8] c"not an identifier\00", align 1
@.str.4 = private unnamed_addr constant [19 x i8] c"not an octal digit\00", align 1
@.str.5 = private unnamed_addr constant [20 x i8] c"not a decimal digit\00", align 1
@.str.6 = private unnamed_addr constant [29 x i8] c"no matching string delimiter\00", align 1
@.str.7 = private unnamed_addr constant [9 x i8] c"no value\00", align 1
@.str.8 = private unnamed_addr constant [13 x i8] c"parse failed\00", align 1
@.str.9 = private unnamed_addr constant [16 x i8] c"string too long\00", align 1
@.str.10 = private unnamed_addr constant [20 x i8] c"trailing characters\00", align 1

; Function Attrs: nounwind uwtable
define noundef i32 @ossl_err_load_PROP_strings() local_unnamed_addr #0 {
  %1 = tail call ptr @ERR_reason_error_string(i64 noundef 461373540) #2
  %2 = icmp eq ptr %1, null
  br i1 %2, label %3, label %5

3:                                                ; preds = %0
  %4 = tail call i32 @ERR_load_strings_const(ptr noundef nonnull @PROP_str_reasons) #2
  br label %5

5:                                                ; preds = %3, %0
  ret i32 1
}

declare ptr @ERR_reason_error_string(i64 noundef) local_unnamed_addr #1

declare i32 @ERR_load_strings_const(ptr noundef) local_unnamed_addr #1


!llvm.module.flags = !{!0, !1, !2}

!0 = !{i32 1, !"wchar_size", i32 4}
!1 = !{i32 8, !"PIC Level", i32 2}
!2 = !{i32 7, !"uwtable", i32 2}
